; Function Attrs: mustprogress uwtable
define noundef ptr @_ZN4base15SparseHistogram19DeserializeInfoImplEPNS_14PickleIteratorE(ptr noundef nonnull %0) local_unnamed_addr #0 align 2 personality ptr @__gxx_personality_v0 {
  %2 = alloca %"class.std::__cxx11::basic_string", align 8
  %3 = alloca i32, align 4
  call void @llvm.lifetime.start.p0(i64 32, ptr nonnull %2) #14
  %4 = getelementptr inbounds nuw i8, ptr %2, i64 16
  store ptr %4, ptr %2, align 8, !tbaa !40
  %5 = getelementptr inbounds nuw i8, ptr %2, i64 8
  store i64 0, ptr %5, align 8, !tbaa !11
  store i8 0, ptr %4, align 8, !tbaa !41
  call void @llvm.lifetime.start.p0(i64 4, ptr nonnull %3) #14
  %6 = invoke noundef zeroext i1 @_ZN4base14PickleIterator10ReadStringEPNSt7__cxx1112basic_stringIcSt11char_traitsIcESaIcEEE(ptr noundef nonnull align 8 dereferenceable(24) %0, ptr noundef nonnull %2)
          to label %7 unwind label %11

7:                                                ; preds = %1
  br i1 %6, label %8, label %21

8:                                                ; preds = %7
  %9 = invoke noundef zeroext i1 @_ZN4base14PickleIterator7ReadIntEPi(ptr noundef nonnull align 8 dereferenceable(24) %0, ptr noundef nonnull %3)
          to label %10 unwind label %11

10:                                               ; preds = %8
  br i1 %9, label %17, label %21

11:                                               ; preds = %17, %8, %1
  %12 = landingpad { ptr, i32 }
          cleanup
  call void @llvm.lifetime.end.p0(i64 4, ptr nonnull %3) #14
  %13 = load ptr, ptr %2, align 8, !tbaa !3
  %14 = icmp eq ptr %13, %4
  br i1 %14, label %_ZNKSt7__cxx1112basic_stringIcSt11char_traitsIcESaIcEE11_M_is_localEv.exit.thread.i.i, label %_ZNKSt7__cxx1112basic_stringIcSt11char_traitsIcESaIcEE11_M_is_localEv.exit.i.i

_ZNKSt7__cxx1112basic_stringIcSt11char_traitsIcESaIcEE11_M_is_localEv.exit.thread.i.i: ; preds = %11
  %15 = load i64, ptr %5, align 8, !tbaa !11
  %16 = icmp ult i64 %15, 16
  call void @llvm.assume(i1 %16)
  br label %_ZNSt7__cxx1112basic_stringIcSt11char_traitsIcESaIcEED2Ev.exit

_ZNKSt7__cxx1112basic_stringIcSt11char_traitsIcESaIcEE11_M_is_localEv.exit.i.i: ; preds = %11
  call void @_ZdlPv(ptr noundef %13) #16
  br label %_ZNSt7__cxx1112basic_stringIcSt11char_traitsIcESaIcEED2Ev.exit

_ZNSt7__cxx1112basic_stringIcSt11char_traitsIcESaIcEED2Ev.exit: ; preds = %_ZNKSt7__cxx1112basic_stringIcSt11char_traitsIcESaIcEE11_M_is_localEv.exit.thread.i.i, %_ZNKSt7__cxx1112basic_stringIcSt11char_traitsIcESaIcEE11_M_is_localEv.exit.i.i
  call void @llvm.lifetime.end.p0(i64 32, ptr nonnull %2) #14
  resume { ptr, i32 } %12

17:                                               ; preds = %10
  %18 = load i32, ptr %3, align 4, !tbaa !12
  %19 = and i32 %18, -17
  store i32 %19, ptr %3, align 4, !tbaa !12
  %20 = invoke noundef ptr @_ZN4base15SparseHistogram10FactoryGetERKNSt7__cxx1112basic_stringIcSt11char_traitsIcESaIcEEEi(ptr noundef nonnull align 8 dereferenceable(32) %2, i32 noundef %19)
          to label %21 unwind label %11

21:                                               ; preds = %17, %7, %10
  %.0 = phi ptr [ null, %10 ], [ null, %7 ], [ %20, %17 ]
  call void @llvm.lifetime.end.p0(i64 4, ptr nonnull %3) #14
  %22 = load ptr, ptr %2, align 8, !tbaa !3
  %23 = icmp eq ptr %22, %4
  br i1 %23, label %_ZNKSt7__cxx1112basic_stringIcSt11char_traitsIcESaIcEE11_M_is_localEv.exit.thread.i.i5, label %_ZNKSt7__cxx1112basic_stringIcSt11char_traitsIcESaIcEE11_M_is_localEv.exit.i.i4

_ZNKSt7__cxx1112basic_stringIcSt11char_traitsIcESaIcEE11_M_is_localEv.exit.thread.i.i5: ; preds = %21
  %24 = load i64, ptr %5, align 8, !tbaa !11
  %25 = icmp ult i64 %24, 16
  call void @llvm.assume(i1 %25)
  br label %_ZNSt7__cxx1112basic_stringIcSt11char_traitsIcESaIcEED2Ev.exit6

_ZNKSt7__cxx1112basic_stringIcSt11char_traitsIcESaIcEE11_M_is_localEv.exit.i.i4: ; preds = %21
  call void @_ZdlPv(ptr noundef %22) #16
  br label %_ZNSt7__cxx1112basic_stringIcSt11char_traitsIcESaIcEED2Ev.exit6

_ZNSt7__cxx1112basic_stringIcSt11char_traitsIcESaIcEED2Ev.exit6: ; preds = %_ZNKSt7__cxx1112basic_stringIcSt11char_traitsIcESaIcEE11_M_is_localEv.exit.thread.i.i5, %_ZNKSt7__cxx1112basic_stringIcSt11char_traitsIcESaIcEE11_M_is_localEv.exit.i.i4
  call void @llvm.lifetime.end.p0(i64 32, ptr nonnull %2) #14
  ret ptr %.0
}